target datalayout = "e-m:e-p270:32:32-p271:32:32-p272:64:64-i64:64-i128:128-f80:128-n8:16:32:64-S128"
target triple = "x86_64-pc-linux-gnu"

%class.btVector3 = type { [4 x float] }
%class.btConvexHullShape = type { %class.btPolyhedralConvexAabbCachingShape.base, [7 x i8], %class.btAlignedObjectArray }
%class.btPolyhedralConvexAabbCachingShape.base = type <{ %class.btPolyhedralConvexShape, %class.btVector3, %class.btVector3, i8 }>
%class.btPolyhedralConvexShape = type { %class.btConvexInternalShape, ptr }
%class.btConvexInternalShape = type { %class.btConvexShape, %class.btVector3, %class.btVector3, float, float }
%class.btConvexShape = type { %class.btCollisionShape }
%class.btCollisionShape = type { ptr, i32, ptr, i32, i32 }
%class.btAlignedObjectArray = type <{ [4 x i8], i32, i32, [4 x i8], ptr, i8, [7 x i8] }>
%struct.btConvexHullShapeData = type { %struct.btConvexInternalShapeData, ptr, ptr, i32, [4 x i8] }
%struct.btConvexInternalShapeData = type { %struct.btCollisionShapeData, %struct.btVector3FloatData, %struct.btVector3FloatData, float, i32 }
%struct.btCollisionShapeData = type { ptr, i32, [4 x i8] }
%struct.btVector3FloatData = type { [4 x float] }
%class.btChunk = type { i32, i32, ptr, i32, i32 }

@.str = private unnamed_addr constant [19 x i8] c"btVector3FloatData\00", align 1
@.str.1 = private unnamed_addr constant [22 x i8] c"btConvexHullShapeData\00", align 1
@.str.2 = private unnamed_addr constant [26 x i8] c"btConvexInternalShapeData\00", align 1

; Function Attrs: inlinehint mustprogress nounwind uwtable
define linkonce_odr dso_local void @_ZNK9btVector314serializeFloatER18btVector3FloatData(ptr noundef nonnull align 4 dereferenceable(16) %0, ptr noundef nonnull align 4 dereferenceable(16) %1) #6 comdat align 2 {
  %3 = alloca ptr, align 8
  %4 = alloca ptr, align 8
  %5 = alloca i32, align 4
  store ptr %0, ptr %3, align 8, !tbaa !27
  store ptr %1, ptr %4, align 8, !tbaa !67
  %6 = load ptr, ptr %3, align 8
  call void @llvm.lifetime.start.p0(i64 4, ptr %5) #14
  store i32 0, ptr %5, align 4, !tbaa !9
  br label %7

7:                                                ; preds = %22, %2
  %8 = load i32, ptr %5, align 4, !tbaa !9
  %9 = icmp slt i32 %8, 4
  br i1 %9, label %11, label %10

10:                                               ; preds = %7
  call void @llvm.lifetime.end.p0(i64 4, ptr %5) #14
  br label %25

11:                                               ; preds = %7
  %12 = getelementptr inbounds nuw %class.btVector3, ptr %6, i32 0, i32 0
  %13 = load i32, ptr %5, align 4, !tbaa !9
  %14 = sext i32 %13 to i64
  %15 = getelementptr inbounds [4 x float], ptr %12, i64 0, i64 %14
  %16 = load float, ptr %15, align 4, !tbaa !36
  %17 = load ptr, ptr %4, align 8, !tbaa !67
  %18 = getelementptr inbounds nuw %struct.btVector3FloatData, ptr %17, i32 0, i32 0
  %19 = load i32, ptr %5, align 4, !tbaa !9
  %20 = sext i32 %19 to i64
  %21 = getelementptr inbounds [4 x float], ptr %18, i64 0, i64 %20
  store float %16, ptr %21, align 4, !tbaa !36
  br label %22

22:                                               ; preds = %11
  %23 = load i32, ptr %5, align 4, !tbaa !9
  %24 = add nsw i32 %23, 1
  store i32 %24, ptr %5, align 4, !tbaa !9
  br label %7, !llvm.loop !111

25:                                               ; preds = %10
  ret void
}

; Function Attrs: inlinehint mustprogress nounwind uwtable
define linkonce_odr dso_local void @_ZNK9btVector39serializeER18btVector3FloatData(ptr noundef nonnull align 4 dereferenceable(16) %0, ptr noundef nonnull align 4 dereferenceable(16) %1) #6 comdat align 2 {
  %3 = alloca ptr, align 8
  %4 = alloca ptr, align 8
  %5 = alloca i32, align 4
  store ptr %0, ptr %3, align 8, !tbaa !27
  store ptr %1, ptr %4, align 8, !tbaa !67
  %6 = load ptr, ptr %3, align 8
  call void @llvm.lifetime.start.p0(i64 4, ptr %5) #14
  store i32 0, ptr %5, align 4, !tbaa !9
  br label %7

7:                                                ; preds = %22, %2
  %8 = load i32, ptr %5, align 4, !tbaa !9
  %9 = icmp slt i32 %8, 4
  br i1 %9, label %11, label %10

10:                                               ; preds = %7
  call void @llvm.lifetime.end.p0(i64 4, ptr %5) #14
  br label %25

11:                                               ; preds = %7
  %12 = getelementptr inbounds nuw %class.btVector3, ptr %6, i32 0, i32 0
  %13 = load i32, ptr %5, align 4, !tbaa !9
  %14 = sext i32 %13 to i64
  %15 = getelementptr inbounds [4 x float], ptr %12, i64 0, i64 %14
  %16 = load float, ptr %15, align 4, !tbaa !36
  %17 = load ptr, ptr %4, align 8, !tbaa !67
  %18 = getelementptr inbounds nuw %struct.btVector3FloatData, ptr %17, i32 0, i32 0
  %19 = load i32, ptr %5, align 4, !tbaa !9
  %20 = sext i32 %19 to i64
  %21 = getelementptr inbounds [4 x float], ptr %18, i64 0, i64 %20
  store float %16, ptr %21, align 4, !tbaa !36
  br label %22

22:                                               ; preds = %11
  %23 = load i32, ptr %5, align 4, !tbaa !9
  %24 = add nsw i32 %23, 1
  store i32 %24, ptr %5, align 4, !tbaa !9
  br label %7, !llvm.loop !79

25:                                               ; preds = %10
  ret void
}

; Function Attrs: inlinehint mustprogress nounwind uwtable
define linkonce_odr dso_local noundef nonnull align 4 dereferenceable(16) ptr @_ZNK20btAlignedObjectArrayI9btVector3EixEi(ptr noundef nonnull align 8 dereferenceable(25) %0, i32 noundef %1) #6 comdat align 2 {
  %3 = alloca ptr, align 8
  %4 = alloca i32, align 4
  store ptr %0, ptr %3, align 8, !tbaa !25
  store i32 %1, ptr %4, align 4, !tbaa !9
  %5 = load ptr, ptr %3, align 8
  %6 = getelementptr inbounds nuw %class.btAlignedObjectArray, ptr %5, i32 0, i32 4
  %7 = load ptr, ptr %6, align 8, !tbaa !30
  %8 = load i32, ptr %4, align 4, !tbaa !9
  %9 = sext i32 %8 to i64
  %10 = getelementptr inbounds %class.btVector3, ptr %7, i64 %9
  ret ptr %10
}

; Function Attrs: inlinehint mustprogress nounwind uwtable
define linkonce_odr dso_local noundef i32 @_ZNK20btAlignedObjectArrayI9btVector3E4sizeEv(ptr noundef nonnull align 8 dereferenceable(25) %0) #6 comdat align 2 {
  %2 = alloca ptr, align 8
  store ptr %0, ptr %2, align 8, !tbaa !25
  %3 = load ptr, ptr %2, align 8
  %4 = getelementptr inbounds nuw %class.btAlignedObjectArray, ptr %3, i32 0, i32 1
  %5 = load i32, ptr %4, align 4, !tbaa !35
  ret i32 %5
}

; Function Attrs: inlinehint mustprogress uwtable
define linkonce_odr dso_local noundef ptr @_ZNK21btConvexInternalShape9serializeEPvP12btSerializer(ptr noundef nonnull align 8 dereferenceable(72) %0, ptr noundef %1, ptr noundef %2) unnamed_addr #4 comdat align 2 {
  %4 = alloca ptr, align 8
  %5 = alloca ptr, align 8
  %6 = alloca ptr, align 8
  %7 = alloca ptr, align 8
  store ptr %0, ptr %4, align 8, !tbaa !69
  store ptr %1, ptr %5, align 8, !tbaa !49
  store ptr %2, ptr %6, align 8, !tbaa !50
  %8 = load ptr, ptr %4, align 8
  call void @llvm.lifetime.start.p0(i64 8, ptr %7) #14
  %9 = load ptr, ptr %5, align 8, !tbaa !49
  store ptr %9, ptr %7, align 8, !tbaa !71
  %10 = load ptr, ptr %7, align 8, !tbaa !71
  %11 = getelementptr inbounds nuw %struct.btConvexInternalShapeData, ptr %10, i32 0, i32 0
  %12 = load ptr, ptr %6, align 8, !tbaa !50
  %13 = call noundef ptr @_ZNK16btCollisionShape9serializeEPvP12btSerializer(ptr noundef nonnull align 8 dereferenceable(32) %8, ptr noundef %11, ptr noundef %12)
  %14 = getelementptr inbounds nuw %class.btConvexInternalShape, ptr %8, i32 0, i32 2
  %15 = load ptr, ptr %7, align 8, !tbaa !71
  %16 = getelementptr inbounds nuw %struct.btConvexInternalShapeData, ptr %15, i32 0, i32 2
  call void @_ZNK9btVector314serializeFloatER18btVector3FloatData(ptr noundef nonnull align 4 dereferenceable(16) %14, ptr noundef nonnull align 4 dereferenceable(16) %16)
  %17 = getelementptr inbounds nuw %class.btConvexInternalShape, ptr %8, i32 0, i32 1
  %18 = load ptr, ptr %7, align 8, !tbaa !71
  %19 = getelementptr inbounds nuw %struct.btConvexInternalShapeData, ptr %18, i32 0, i32 1
  call void @_ZNK9btVector314serializeFloatER18btVector3FloatData(ptr noundef nonnull align 4 dereferenceable(16) %17, ptr noundef nonnull align 4 dereferenceable(16) %19)
  %20 = getelementptr inbounds nuw %class.btConvexInternalShape, ptr %8, i32 0, i32 3
  %21 = load float, ptr %20, align 8, !tbaa !73
  %22 = load ptr, ptr %7, align 8, !tbaa !71
  %23 = getelementptr inbounds nuw %struct.btConvexInternalShapeData, ptr %22, i32 0, i32 3
  store float %21, ptr %23, align 8, !tbaa !77
  %24 = load ptr, ptr %7, align 8, !tbaa !71
  %25 = getelementptr inbounds nuw %struct.btConvexInternalShapeData, ptr %24, i32 0, i32 4
  store i32 0, ptr %25, align 4, !tbaa !78
  call void @llvm.lifetime.end.p0(i64 8, ptr %7) #14
  ret ptr @.str.2
}

; Function Attrs: mustprogress uwtable
define dso_local noundef ptr @_ZNK17btConvexHullShape9serializeEPvP12btSerializer(ptr noundef nonnull align 8 dereferenceable(152) %0, ptr noundef %1, ptr noundef %2) unnamed_addr #2 align 2 {
  %4 = alloca ptr, align 8
  %5 = alloca ptr, align 8
  %6 = alloca ptr, align 8
  %7 = alloca ptr, align 8
  %8 = alloca i32, align 4
  %9 = alloca i32, align 4
  %10 = alloca ptr, align 8
  %11 = alloca ptr, align 8
  %12 = alloca i32, align 4
  store ptr %0, ptr %4, align 8, !tbaa !12
  store ptr %1, ptr %5, align 8, !tbaa !49
  store ptr %2, ptr %6, align 8, !tbaa !50
  %13 = load ptr, ptr %4, align 8
  call void @llvm.lifetime.start.p0(i64 8, ptr %7) #14
  %14 = load ptr, ptr %5, align 8, !tbaa !49
  store ptr %14, ptr %7, align 8, !tbaa !52
  %15 = load ptr, ptr %7, align 8, !tbaa !52
  %16 = getelementptr inbounds nuw %struct.btConvexHullShapeData, ptr %15, i32 0, i32 0
  %17 = load ptr, ptr %6, align 8, !tbaa !50
  %18 = call noundef ptr @_ZNK21btConvexInternalShape9serializeEPvP12btSerializer(ptr noundef nonnull align 8 dereferenceable(72) %13, ptr noundef %16, ptr noundef %17)
  call void @llvm.lifetime.start.p0(i64 4, ptr %8) #14
  %19 = getelementptr inbounds nuw %class.btConvexHullShape, ptr %13, i32 0, i32 2
  %20 = call noundef i32 @_ZNK20btAlignedObjectArrayI9btVector3E4sizeEv(ptr noundef nonnull align 8 dereferenceable(25) %19)
  store i32 %20, ptr %8, align 4, !tbaa !9
  %21 = load i32, ptr %8, align 4, !tbaa !9
  %22 = load ptr, ptr %7, align 8, !tbaa !52
  %23 = getelementptr inbounds nuw %struct.btConvexHullShapeData, ptr %22, i32 0, i32 3
  store i32 %21, ptr %23, align 8, !tbaa !54
  %24 = load i32, ptr %8, align 4, !tbaa !9
  %25 = icmp ne i32 %24, 0
  br i1 %25, label %26, label %34

26:                                               ; preds = %3
  %27 = load ptr, ptr %6, align 8, !tbaa !50
  %28 = getelementptr inbounds nuw %class.btConvexHullShape, ptr %13, i32 0, i32 2
  %29 = call noundef nonnull align 4 dereferenceable(16) ptr @_ZNK20btAlignedObjectArrayI9btVector3EixEi(ptr noundef nonnull align 8 dereferenceable(25) %28, i32 noundef 0)
  %30 = load ptr, ptr %27, align 8, !tbaa !16
  %31 = getelementptr inbounds ptr, ptr %30, i64 7
  %32 = load ptr, ptr %31, align 8
  %33 = call noundef ptr %32(ptr noundef nonnull align 8 dereferenceable(8) %27, ptr noundef %29)
  br label %35

34:                                               ; preds = %3
  br label %35

35:                                               ; preds = %34, %26
  %36 = phi ptr [ %33, %26 ], [ null, %34 ]
  %37 = load ptr, ptr %7, align 8, !tbaa !52
  %38 = getelementptr inbounds nuw %struct.btConvexHullShapeData, ptr %37, i32 0, i32 1
  store ptr %36, ptr %38, align 8, !tbaa !61
  %39 = load ptr, ptr %7, align 8, !tbaa !52
  %40 = getelementptr inbounds nuw %struct.btConvexHullShapeData, ptr %39, i32 0, i32 2
  store ptr null, ptr %40, align 8, !tbaa !62
  %41 = load i32, ptr %8, align 4, !tbaa !9
  %42 = icmp ne i32 %41, 0
  br i1 %42, label %43, label %78

43:                                               ; preds = %35
  call void @llvm.lifetime.start.p0(i64 4, ptr %9) #14
  store i32 16, ptr %9, align 4, !tbaa !9
  call void @llvm.lifetime.start.p0(i64 8, ptr %10) #14
  %44 = load ptr, ptr %6, align 8, !tbaa !50
  %45 = load i32, ptr %9, align 4, !tbaa !9
  %46 = sext i32 %45 to i64
  %47 = load i32, ptr %8, align 4, !tbaa !9
  %48 = load ptr, ptr %44, align 8, !tbaa !16
  %49 = getelementptr inbounds ptr, ptr %48, i64 4
  %50 = load ptr, ptr %49, align 8
  %51 = call noundef ptr %50(ptr noundef nonnull align 8 dereferenceable(8) %44, i64 noundef %46, i32 noundef %47)
  store ptr %51, ptr %10, align 8, !tbaa !63
  call void @llvm.lifetime.start.p0(i64 8, ptr %11) #14
  %52 = load ptr, ptr %10, align 8, !tbaa !63
  %53 = getelementptr inbounds nuw %class.btChunk, ptr %52, i32 0, i32 2
  %54 = load ptr, ptr %53, align 8, !tbaa !65
  store ptr %54, ptr %11, align 8, !tbaa !67
  call void @llvm.lifetime.start.p0(i64 4, ptr %12) #14
  store i32 0, ptr %12, align 4, !tbaa !9
  br label %55

55:                                               ; preds = %65, %43
  %56 = load i32, ptr %12, align 4, !tbaa !9
  %57 = load i32, ptr %8, align 4, !tbaa !9
  %58 = icmp slt i32 %56, %57
  br i1 %58, label %60, label %59

59:                                               ; preds = %55
  call void @llvm.lifetime.end.p0(i64 4, ptr %12) #14
  br label %70

60:                                               ; preds = %55
  %61 = getelementptr inbounds nuw %class.btConvexHullShape, ptr %13, i32 0, i32 2
  %62 = load i32, ptr %12, align 4, !tbaa !9
  %63 = call noundef nonnull align 4 dereferenceable(16) ptr @_ZNK20btAlignedObjectArrayI9btVector3EixEi(ptr noundef nonnull align 8 dereferenceable(25) %61, i32 noundef %62)
  %64 = load ptr, ptr %11, align 8, !tbaa !67
  call void @_ZNK9btVector39serializeER18btVector3FloatData(ptr noundef nonnull align 4 dereferenceable(16) %63, ptr noundef nonnull align 4 dereferenceable(16) %64)
  br label %65

65:                                               ; preds = %60
  %66 = load i32, ptr %12, align 4, !tbaa !9
  %67 = add nsw i32 %66, 1
  store i32 %67, ptr %12, align 4, !tbaa !9
  %68 = load ptr, ptr %11, align 8, !tbaa !67
  %69 = getelementptr inbounds nuw %struct.btVector3FloatData, ptr %68, i32 1
  store ptr %69, ptr %11, align 8, !tbaa !67
  br label %55, !llvm.loop !68

70:                                               ; preds = %59
  %71 = load ptr, ptr %6, align 8, !tbaa !50
  %72 = load ptr, ptr %10, align 8, !tbaa !63
  %73 = getelementptr inbounds nuw %class.btConvexHullShape, ptr %13, i32 0, i32 2
  %74 = call noundef nonnull align 4 dereferenceable(16) ptr @_ZNK20btAlignedObjectArrayI9btVector3EixEi(ptr noundef nonnull align 8 dereferenceable(25) %73, i32 noundef 0)
  %75 = load ptr, ptr %71, align 8, !tbaa !16
  %76 = getelementptr inbounds ptr, ptr %75, i64 5
  %77 = load ptr, ptr %76, align 8
  call void %77(ptr noundef nonnull align 8 dereferenceable(8) %71, ptr noundef %72, ptr noundef @.str, i32 noundef 1497453121, ptr noundef %74)
  call void @llvm.lifetime.end.p0(i64 8, ptr %11) #14
  call void @llvm.lifetime.end.p0(i64 8, ptr %10) #14
  call void @llvm.lifetime.end.p0(i64 4, ptr %9) #14
  br label %78

78:                                               ; preds = %70, %35
  %79 = load ptr, ptr %7, align 8, !tbaa !52
  %80 = getelementptr inbounds nuw %struct.btConvexHullShapeData, ptr %79, i32 0, i32 4
  %81 = getelementptr inbounds [4 x i8], ptr %80, i64 0, i64 0
  call void @llvm.memset.p0.i64(ptr align 4 %81, i8 0, i64 4, i1 false)
  call void @llvm.lifetime.end.p0(i64 4, ptr %8) #14
  call void @llvm.lifetime.end.p0(i64 8, ptr %7) #14
  ret ptr @.str.1
}