; Function Attrs: mustprogress uwtable
define dso_local noundef ptr @_ZNK17btConvexHullShape9serializeEPvP12btSerializer(ptr noundef nonnull align 8 dereferenceable(152) %0, ptr noundef %1, ptr noundef %2) unnamed_addr #0 align 2 {
  %4 = tail call noundef ptr @_ZNK16btCollisionShape9serializeEPvP12btSerializer(ptr noundef nonnull align 8 dereferenceable(72) %0, ptr noundef %1, ptr noundef %2)
  %5 = getelementptr inbounds nuw i8, ptr %0, i64 48
  %6 = getelementptr inbounds nuw i8, ptr %1, i64 32
  br label %7

7:                                                ; preds = %7, %3
  %indvars.iv.i.i = phi i64 [ 0, %3 ], [ %indvars.iv.next.i.i, %7 ]
  %8 = getelementptr inbounds nuw [4 x float], ptr %5, i64 0, i64 %indvars.iv.i.i
  %9 = load float, ptr %8, align 4, !tbaa !26
  %10 = getelementptr inbounds nuw [4 x float], ptr %6, i64 0, i64 %indvars.iv.i.i
  store float %9, ptr %10, align 4, !tbaa !26
  %indvars.iv.next.i.i = add nuw nsw i64 %indvars.iv.i.i, 1
  %exitcond.not.i.i = icmp eq i64 %indvars.iv.next.i.i, 4
  br i1 %exitcond.not.i.i, label %_ZNK9btVector314serializeFloatER18btVector3FloatData.exit.i, label %7, !llvm.loop !49

_ZNK9btVector314serializeFloatER18btVector3FloatData.exit.i: ; preds = %7
  %11 = getelementptr inbounds nuw i8, ptr %0, i64 32
  %12 = getelementptr inbounds nuw i8, ptr %1, i64 16
  br label %13

13:                                               ; preds = %13, %_ZNK9btVector314serializeFloatER18btVector3FloatData.exit.i
  %indvars.iv.i8.i = phi i64 [ 0, %_ZNK9btVector314serializeFloatER18btVector3FloatData.exit.i ], [ %indvars.iv.next.i9.i, %13 ]
  %14 = getelementptr inbounds nuw [4 x float], ptr %11, i64 0, i64 %indvars.iv.i8.i
  %15 = load float, ptr %14, align 4, !tbaa !26
  %16 = getelementptr inbounds nuw [4 x float], ptr %12, i64 0, i64 %indvars.iv.i8.i
  store float %15, ptr %16, align 4, !tbaa !26
  %indvars.iv.next.i9.i = add nuw nsw i64 %indvars.iv.i8.i, 1
  %exitcond.not.i10.i = icmp eq i64 %indvars.iv.next.i9.i, 4
  br i1 %exitcond.not.i10.i, label %_ZNK21btConvexInternalShape9serializeEPvP12btSerializer.exit, label %13, !llvm.loop !49

_ZNK21btConvexInternalShape9serializeEPvP12btSerializer.exit: ; preds = %13
  %17 = getelementptr inbounds nuw i8, ptr %0, i64 64
  %18 = load float, ptr %17, align 8, !tbaa !50
  %19 = getelementptr inbounds nuw i8, ptr %1, i64 48
  store float %18, ptr %19, align 8, !tbaa !54
  %20 = getelementptr inbounds nuw i8, ptr %1, i64 52
  store i32 0, ptr %20, align 4, !tbaa !59
  %21 = getelementptr inbounds nuw i8, ptr %0, i64 124
  %22 = load i32, ptr %21, align 4, !tbaa !16
  %23 = getelementptr inbounds nuw i8, ptr %1, i64 72
  store i32 %22, ptr %23, align 8, !tbaa !60
  %.not = icmp eq i32 %22, 0
  br i1 %.not, label %.critedge, label %24

24:                                               ; preds = %_ZNK21btConvexInternalShape9serializeEPvP12btSerializer.exit
  %25 = getelementptr inbounds nuw i8, ptr %0, i64 136
  %26 = load ptr, ptr %25, align 8, !tbaa !15
  %27 = load ptr, ptr %2, align 8, !tbaa !4
  %28 = getelementptr inbounds nuw i8, ptr %27, i64 56
  %29 = load ptr, ptr %28, align 8
  %30 = tail call noundef ptr %29(ptr noundef nonnull align 8 dereferenceable(8) %2, ptr noundef nonnull %26)
  %31 = getelementptr inbounds nuw i8, ptr %1, i64 56
  store ptr %30, ptr %31, align 8, !tbaa !64
  %32 = getelementptr inbounds nuw i8, ptr %1, i64 64
  store ptr null, ptr %32, align 8, !tbaa !65
  %33 = load ptr, ptr %2, align 8, !tbaa !4
  %34 = getelementptr inbounds nuw i8, ptr %33, i64 32
  %35 = load ptr, ptr %34, align 8
  %36 = tail call noundef ptr %35(ptr noundef nonnull align 8 dereferenceable(8) %2, i64 noundef 16, i32 noundef %22)
  %37 = icmp sgt i32 %22, 0
  %.pre = load ptr, ptr %25, align 8, !tbaa !15
  br i1 %37, label %.lr.ph, label %._crit_edge

.lr.ph:                                           ; preds = %24
  %38 = getelementptr inbounds nuw i8, ptr %36, i64 8
  %39 = load ptr, ptr %38, align 8, !tbaa !66
  %wide.trip.count = zext nneg i32 %22 to i64
  br label %43

._crit_edge:                                      ; preds = %_ZNK9btVector39serializeER18btVector3FloatData.exit, %24
  %40 = load ptr, ptr %2, align 8, !tbaa !4
  %41 = getelementptr inbounds nuw i8, ptr %40, i64 40
  %42 = load ptr, ptr %41, align 8
  tail call void %42(ptr noundef nonnull align 8 dereferenceable(8) %2, ptr noundef %36, ptr noundef nonnull @.str, i32 noundef 1497453121, ptr noundef nonnull %.pre)
  br label %51

43:                                               ; preds = %.lr.ph, %_ZNK9btVector39serializeER18btVector3FloatData.exit
  %indvars.iv = phi i64 [ 0, %.lr.ph ], [ %indvars.iv.next, %_ZNK9btVector39serializeER18btVector3FloatData.exit ]
  %.02325 = phi ptr [ %39, %.lr.ph ], [ %49, %_ZNK9btVector39serializeER18btVector3FloatData.exit ]
  %44 = getelementptr inbounds nuw %class.btVector3, ptr %.pre, i64 %indvars.iv
  br label %45

45:                                               ; preds = %45, %43
  %indvars.iv.i = phi i64 [ 0, %43 ], [ %indvars.iv.next.i, %45 ]
  %46 = getelementptr inbounds nuw [4 x float], ptr %44, i64 0, i64 %indvars.iv.i
  %47 = load float, ptr %46, align 4, !tbaa !26
  %48 = getelementptr inbounds nuw [4 x float], ptr %.02325, i64 0, i64 %indvars.iv.i
  store float %47, ptr %48, align 4, !tbaa !26
  %indvars.iv.next.i = add nuw nsw i64 %indvars.iv.i, 1
  %exitcond.not.i = icmp eq i64 %indvars.iv.next.i, 4
  br i1 %exitcond.not.i, label %_ZNK9btVector39serializeER18btVector3FloatData.exit, label %45, !llvm.loop !68

_ZNK9btVector39serializeER18btVector3FloatData.exit: ; preds = %45
  %indvars.iv.next = add nuw nsw i64 %indvars.iv, 1
  %49 = getelementptr inbounds nuw i8, ptr %.02325, i64 16
  %exitcond.not = icmp eq i64 %indvars.iv.next, %wide.trip.count
  br i1 %exitcond.not, label %._crit_edge, label %43, !llvm.loop !69

.critedge:                                        ; preds = %_ZNK21btConvexInternalShape9serializeEPvP12btSerializer.exit
  %50 = getelementptr inbounds nuw i8, ptr %1, i64 56
  tail call void @llvm.memset.p0.i64(ptr noundef nonnull align 8 dereferenceable(16) %50, i8 0, i64 16, i1 false)
  br label %51

51:                                               ; preds = %.critedge, %._crit_edge
  %52 = getelementptr inbounds nuw i8, ptr %1, i64 76
  store i32 0, ptr %52, align 4
  ret ptr @.str.1
}